target datalayout = "e-m:e-p270:32:32-p271:32:32-p272:64:64-i64:64-i128:128-f80:128-n8:16:32:64-S128"
target triple = "x86_64-pc-linux-gnu"

; Function Attrs: inlinehint nounwind uwtable
define internal i32 @MEM_read32(ptr noundef %0) #3 {
  %2 = alloca ptr, align 8
  store ptr %0, ptr %2, align 8, !tbaa !11
  %3 = load ptr, ptr %2, align 8, !tbaa !11
  %4 = load i32, ptr %3, align 1, !tbaa !14
  ret i32 %4
}

; Function Attrs: nounwind uwtable
define internal i64 @HIST_count_parallel_wksp(ptr noundef %0, ptr noundef %1, ptr noundef %2, i64 noundef %3, i32 noundef %4, ptr noundef %5) #0 {
  %7 = alloca i64, align 8
  %8 = alloca ptr, align 8
  %9 = alloca ptr, align 8
  %10 = alloca ptr, align 8
  %11 = alloca i64, align 8
  %12 = alloca i32, align 4
  %13 = alloca ptr, align 8
  %14 = alloca ptr, align 8
  %15 = alloca ptr, align 8
  %16 = alloca i64, align 8
  %17 = alloca i32, align 4
  %18 = alloca ptr, align 8
  %19 = alloca ptr, align 8
  %20 = alloca ptr, align 8
  %21 = alloca ptr, align 8
  %22 = alloca i32, align 4
  %23 = alloca i32, align 4
  %24 = alloca i32, align 4
  %25 = alloca i32, align 4
  %26 = alloca i32, align 4
  store ptr %0, ptr %8, align 8, !tbaa !8
  store ptr %1, ptr %9, align 8, !tbaa !8
  store ptr %2, ptr %10, align 8, !tbaa !11
  store i64 %3, ptr %11, align 8, !tbaa !4
  store i32 %4, ptr %12, align 4, !tbaa !14
  store ptr %5, ptr %13, align 8, !tbaa !8
  call void @llvm.lifetime.start.p0(i64 8, ptr %14) #5
  %27 = load ptr, ptr %10, align 8, !tbaa !11
  store ptr %27, ptr %14, align 8, !tbaa !12
  call void @llvm.lifetime.start.p0(i64 8, ptr %15) #5
  %28 = load ptr, ptr %14, align 8, !tbaa !12
  %29 = load i64, ptr %11, align 8, !tbaa !4
  %30 = getelementptr inbounds nuw i8, ptr %28, i64 %29
  store ptr %30, ptr %15, align 8, !tbaa !12
  call void @llvm.lifetime.start.p0(i64 8, ptr %16) #5
  %31 = load ptr, ptr %9, align 8, !tbaa !8
  %32 = load i32, ptr %31, align 4, !tbaa !14
  %33 = add i32 %32, 1
  %34 = zext i32 %33 to i64
  %35 = mul i64 %34, 4
  store i64 %35, ptr %16, align 8, !tbaa !4
  call void @llvm.lifetime.start.p0(i64 4, ptr %17) #5
  store i32 0, ptr %17, align 4, !tbaa !14
  call void @llvm.lifetime.start.p0(i64 8, ptr %18) #5
  %36 = load ptr, ptr %13, align 8, !tbaa !8
  store ptr %36, ptr %18, align 8, !tbaa !8
  call void @llvm.lifetime.start.p0(i64 8, ptr %19) #5
  %37 = load ptr, ptr %18, align 8, !tbaa !8
  %38 = getelementptr inbounds i32, ptr %37, i64 256
  store ptr %38, ptr %19, align 8, !tbaa !8
  call void @llvm.lifetime.start.p0(i64 8, ptr %20) #5
  %39 = load ptr, ptr %19, align 8, !tbaa !8
  %40 = getelementptr inbounds i32, ptr %39, i64 256
  store ptr %40, ptr %20, align 8, !tbaa !8
  call void @llvm.lifetime.start.p0(i64 8, ptr %21) #5
  %41 = load ptr, ptr %20, align 8, !tbaa !8
  %42 = getelementptr inbounds i32, ptr %41, i64 256
  store ptr %42, ptr %21, align 8, !tbaa !8
  %43 = load i64, ptr %11, align 8, !tbaa !4
  %44 = icmp ne i64 %43, 0
  br i1 %44, label %49, label %45

45:                                               ; preds = %6
  %46 = load ptr, ptr %8, align 8, !tbaa !8
  %47 = load i64, ptr %16, align 8, !tbaa !4
  call void @llvm.memset.p0.i64(ptr align 4 %46, i8 0, i64 %47, i1 false)
  %48 = load ptr, ptr %9, align 8, !tbaa !8
  store i32 0, ptr %48, align 4, !tbaa !14
  store i64 0, ptr %7, align 8
  store i32 1, ptr %22, align 4
  br label %294

49:                                               ; preds = %6
  %50 = load ptr, ptr %13, align 8, !tbaa !8
  call void @llvm.memset.p0.i64(ptr align 4 %50, i8 0, i64 4096, i1 false)
  call void @llvm.lifetime.start.p0(i64 4, ptr %23) #5
  %51 = load ptr, ptr %14, align 8, !tbaa !12
  %52 = call i32 @MEM_read32(ptr noundef %51)
  store i32 %52, ptr %23, align 4, !tbaa !14
  %53 = load ptr, ptr %14, align 8, !tbaa !12
  %54 = getelementptr inbounds i8, ptr %53, i64 4
  store ptr %54, ptr %14, align 8, !tbaa !12
  br label %55

55:                                               ; preds = %60, %49
  %56 = load ptr, ptr %14, align 8, !tbaa !12
  %57 = load ptr, ptr %15, align 8, !tbaa !12
  %58 = getelementptr inbounds i8, ptr %57, i64 -15
  %59 = icmp ult ptr %56, %58
  br i1 %59, label %60, label %201

60:                                               ; preds = %55
  call void @llvm.lifetime.start.p0(i64 4, ptr %24) #5
  %61 = load i32, ptr %23, align 4, !tbaa !14
  store i32 %61, ptr %24, align 4, !tbaa !14
  %62 = load ptr, ptr %14, align 8, !tbaa !12
  %63 = call i32 @MEM_read32(ptr noundef %62)
  store i32 %63, ptr %23, align 4, !tbaa !14
  %64 = load ptr, ptr %14, align 8, !tbaa !12
  %65 = getelementptr inbounds i8, ptr %64, i64 4
  store ptr %65, ptr %14, align 8, !tbaa !12
  %66 = load ptr, ptr %18, align 8, !tbaa !8
  %67 = load i32, ptr %24, align 4, !tbaa !14
  %68 = trunc i32 %67 to i8
  %69 = zext i8 %68 to i64
  %70 = getelementptr inbounds nuw i32, ptr %66, i64 %69
  %71 = load i32, ptr %70, align 4, !tbaa !14
  %72 = add i32 %71, 1
  store i32 %72, ptr %70, align 4, !tbaa !14
  %73 = load ptr, ptr %19, align 8, !tbaa !8
  %74 = load i32, ptr %24, align 4, !tbaa !14
  %75 = lshr i32 %74, 8
  %76 = trunc i32 %75 to i8
  %77 = zext i8 %76 to i64
  %78 = getelementptr inbounds nuw i32, ptr %73, i64 %77
  %79 = load i32, ptr %78, align 4, !tbaa !14
  %80 = add i32 %79, 1
  store i32 %80, ptr %78, align 4, !tbaa !14
  %81 = load ptr, ptr %20, align 8, !tbaa !8
  %82 = load i32, ptr %24, align 4, !tbaa !14
  %83 = lshr i32 %82, 16
  %84 = trunc i32 %83 to i8
  %85 = zext i8 %84 to i64
  %86 = getelementptr inbounds nuw i32, ptr %81, i64 %85
  %87 = load i32, ptr %86, align 4, !tbaa !14
  %88 = add i32 %87, 1
  store i32 %88, ptr %86, align 4, !tbaa !14
  %89 = load ptr, ptr %21, align 8, !tbaa !8
  %90 = load i32, ptr %24, align 4, !tbaa !14
  %91 = lshr i32 %90, 24
  %92 = zext i32 %91 to i64
  %93 = getelementptr inbounds nuw i32, ptr %89, i64 %92
  %94 = load i32, ptr %93, align 4, !tbaa !14
  %95 = add i32 %94, 1
  store i32 %95, ptr %93, align 4, !tbaa !14
  %96 = load i32, ptr %23, align 4, !tbaa !14
  store i32 %96, ptr %24, align 4, !tbaa !14
  %97 = load ptr, ptr %14, align 8, !tbaa !12
  %98 = call i32 @MEM_read32(ptr noundef %97)
  store i32 %98, ptr %23, align 4, !tbaa !14
  %99 = load ptr, ptr %14, align 8, !tbaa !12
  %100 = getelementptr inbounds i8, ptr %99, i64 4
  store ptr %100, ptr %14, align 8, !tbaa !12
  %101 = load ptr, ptr %18, align 8, !tbaa !8
  %102 = load i32, ptr %24, align 4, !tbaa !14
  %103 = trunc i32 %102 to i8
  %104 = zext i8 %103 to i64
  %105 = getelementptr inbounds nuw i32, ptr %101, i64 %104
  %106 = load i32, ptr %105, align 4, !tbaa !14
  %107 = add i32 %106, 1
  store i32 %107, ptr %105, align 4, !tbaa !14
  %108 = load ptr, ptr %19, align 8, !tbaa !8
  %109 = load i32, ptr %24, align 4, !tbaa !14
  %110 = lshr i32 %109, 8
  %111 = trunc i32 %110 to i8
  %112 = zext i8 %111 to i64
  %113 = getelementptr inbounds nuw i32, ptr %108, i64 %112
  %114 = load i32, ptr %113, align 4, !tbaa !14
  %115 = add i32 %114, 1
  store i32 %115, ptr %113, align 4, !tbaa !14
  %116 = load ptr, ptr %20, align 8, !tbaa !8
  %117 = load i32, ptr %24, align 4, !tbaa !14
  %118 = lshr i32 %117, 16
  %119 = trunc i32 %118 to i8
  %120 = zext i8 %119 to i64
  %121 = getelementptr inbounds nuw i32, ptr %116, i64 %120
  %122 = load i32, ptr %121, align 4, !tbaa !14
  %123 = add i32 %122, 1
  store i32 %123, ptr %121, align 4, !tbaa !14
  %124 = load ptr, ptr %21, align 8, !tbaa !8
  %125 = load i32, ptr %24, align 4, !tbaa !14
  %126 = lshr i32 %125, 24
  %127 = zext i32 %126 to i64
  %128 = getelementptr inbounds nuw i32, ptr %124, i64 %127
  %129 = load i32, ptr %128, align 4, !tbaa !14
  %130 = add i32 %129, 1
  store i32 %130, ptr %128, align 4, !tbaa !14
  %131 = load i32, ptr %23, align 4, !tbaa !14
  store i32 %131, ptr %24, align 4, !tbaa !14
  %132 = load ptr, ptr %14, align 8, !tbaa !12
  %133 = call i32 @MEM_read32(ptr noundef %132)
  store i32 %133, ptr %23, align 4, !tbaa !14
  %134 = load ptr, ptr %14, align 8, !tbaa !12
  %135 = getelementptr inbounds i8, ptr %134, i64 4
  store ptr %135, ptr %14, align 8, !tbaa !12
  %136 = load ptr, ptr %18, align 8, !tbaa !8
  %137 = load i32, ptr %24, align 4, !tbaa !14
  %138 = trunc i32 %137 to i8
  %139 = zext i8 %138 to i64
  %140 = getelementptr inbounds nuw i32, ptr %136, i64 %139
  %141 = load i32, ptr %140, align 4, !tbaa !14
  %142 = add i32 %141, 1
  store i32 %142, ptr %140, align 4, !tbaa !14
  %143 = load ptr, ptr %19, align 8, !tbaa !8
  %144 = load i32, ptr %24, align 4, !tbaa !14
  %145 = lshr i32 %144, 8
  %146 = trunc i32 %145 to i8
  %147 = zext i8 %146 to i64
  %148 = getelementptr inbounds nuw i32, ptr %143, i64 %147
  %149 = load i32, ptr %148, align 4, !tbaa !14
  %150 = add i32 %149, 1
  store i32 %150, ptr %148, align 4, !tbaa !14
  %151 = load ptr, ptr %20, align 8, !tbaa !8
  %152 = load i32, ptr %24, align 4, !tbaa !14
  %153 = lshr i32 %152, 16
  %154 = trunc i32 %153 to i8
  %155 = zext i8 %154 to i64
  %156 = getelementptr inbounds nuw i32, ptr %151, i64 %155
  %157 = load i32, ptr %156, align 4, !tbaa !14
  %158 = add i32 %157, 1
  store i32 %158, ptr %156, align 4, !tbaa !14
  %159 = load ptr, ptr %21, align 8, !tbaa !8
  %160 = load i32, ptr %24, align 4, !tbaa !14
  %161 = lshr i32 %160, 24
  %162 = zext i32 %161 to i64
  %163 = getelementptr inbounds nuw i32, ptr %159, i64 %162
  %164 = load i32, ptr %163, align 4, !tbaa !14
  %165 = add i32 %164, 1
  store i32 %165, ptr %163, align 4, !tbaa !14
  %166 = load i32, ptr %23, align 4, !tbaa !14
  store i32 %166, ptr %24, align 4, !tbaa !14
  %167 = load ptr, ptr %14, align 8, !tbaa !12
  %168 = call i32 @MEM_read32(ptr noundef %167)
  store i32 %168, ptr %23, align 4, !tbaa !14
  %169 = load ptr, ptr %14, align 8, !tbaa !12
  %170 = getelementptr inbounds i8, ptr %169, i64 4
  store ptr %170, ptr %14, align 8, !tbaa !12
  %171 = load ptr, ptr %18, align 8, !tbaa !8
  %172 = load i32, ptr %24, align 4, !tbaa !14
  %173 = trunc i32 %172 to i8
  %174 = zext i8 %173 to i64
  %175 = getelementptr inbounds nuw i32, ptr %171, i64 %174
  %176 = load i32, ptr %175, align 4, !tbaa !14
  %177 = add i32 %176, 1
  store i32 %177, ptr %175, align 4, !tbaa !14
  %178 = load ptr, ptr %19, align 8, !tbaa !8
  %179 = load i32, ptr %24, align 4, !tbaa !14
  %180 = lshr i32 %179, 8
  %181 = trunc i32 %180 to i8
  %182 = zext i8 %181 to i64
  %183 = getelementptr inbounds nuw i32, ptr %178, i64 %182
  %184 = load i32, ptr %183, align 4, !tbaa !14
  %185 = add i32 %184, 1
  store i32 %185, ptr %183, align 4, !tbaa !14
  %186 = load ptr, ptr %20, align 8, !tbaa !8
  %187 = load i32, ptr %24, align 4, !tbaa !14
  %188 = lshr i32 %187, 16
  %189 = trunc i32 %188 to i8
  %190 = zext i8 %189 to i64
  %191 = getelementptr inbounds nuw i32, ptr %186, i64 %190
  %192 = load i32, ptr %191, align 4, !tbaa !14
  %193 = add i32 %192, 1
  store i32 %193, ptr %191, align 4, !tbaa !14
  %194 = load ptr, ptr %21, align 8, !tbaa !8
  %195 = load i32, ptr %24, align 4, !tbaa !14
  %196 = lshr i32 %195, 24
  %197 = zext i32 %196 to i64
  %198 = getelementptr inbounds nuw i32, ptr %194, i64 %197
  %199 = load i32, ptr %198, align 4, !tbaa !14
  %200 = add i32 %199, 1
  store i32 %200, ptr %198, align 4, !tbaa !14
  call void @llvm.lifetime.end.p0(i64 4, ptr %24) #5
  br label %55, !llvm.loop !21

201:                                              ; preds = %55
  %202 = load ptr, ptr %14, align 8, !tbaa !12
  %203 = getelementptr inbounds i8, ptr %202, i64 -4
  store ptr %203, ptr %14, align 8, !tbaa !12
  call void @llvm.lifetime.end.p0(i64 4, ptr %23) #5
  br label %204

204:                                              ; preds = %208, %201
  %205 = load ptr, ptr %14, align 8, !tbaa !12
  %206 = load ptr, ptr %15, align 8, !tbaa !12
  %207 = icmp ult ptr %205, %206
  br i1 %207, label %208, label %217

208:                                              ; preds = %204
  %209 = load ptr, ptr %18, align 8, !tbaa !8
  %210 = load ptr, ptr %14, align 8, !tbaa !12
  %211 = getelementptr inbounds nuw i8, ptr %210, i32 1
  store ptr %211, ptr %14, align 8, !tbaa !12
  %212 = load i8, ptr %210, align 1, !tbaa !16
  %213 = zext i8 %212 to i64
  %214 = getelementptr inbounds nuw i32, ptr %209, i64 %213
  %215 = load i32, ptr %214, align 4, !tbaa !14
  %216 = add i32 %215, 1
  store i32 %216, ptr %214, align 4, !tbaa !14
  br label %204, !llvm.loop !22

217:                                              ; preds = %204
  call void @llvm.lifetime.start.p0(i64 4, ptr %25) #5
  store i32 0, ptr %25, align 4, !tbaa !14
  br label %218

218:                                              ; preds = %259, %217
  %219 = load i32, ptr %25, align 4, !tbaa !14
  %220 = icmp ult i32 %219, 256
  br i1 %220, label %221, label %262

221:                                              ; preds = %218
  %222 = load ptr, ptr %19, align 8, !tbaa !8
  %223 = load i32, ptr %25, align 4, !tbaa !14
  %224 = zext i32 %223 to i64
  %225 = getelementptr inbounds nuw i32, ptr %222, i64 %224
  %226 = load i32, ptr %225, align 4, !tbaa !14
  %227 = load ptr, ptr %20, align 8, !tbaa !8
  %228 = load i32, ptr %25, align 4, !tbaa !14
  %229 = zext i32 %228 to i64
  %230 = getelementptr inbounds nuw i32, ptr %227, i64 %229
  %231 = load i32, ptr %230, align 4, !tbaa !14
  %232 = add i32 %226, %231
  %233 = load ptr, ptr %21, align 8, !tbaa !8
  %234 = load i32, ptr %25, align 4, !tbaa !14
  %235 = zext i32 %234 to i64
  %236 = getelementptr inbounds nuw i32, ptr %233, i64 %235
  %237 = load i32, ptr %236, align 4, !tbaa !14
  %238 = add i32 %232, %237
  %239 = load ptr, ptr %18, align 8, !tbaa !8
  %240 = load i32, ptr %25, align 4, !tbaa !14
  %241 = zext i32 %240 to i64
  %242 = getelementptr inbounds nuw i32, ptr %239, i64 %241
  %243 = load i32, ptr %242, align 4, !tbaa !14
  %244 = add i32 %243, %238
  store i32 %244, ptr %242, align 4, !tbaa !14
  %245 = load ptr, ptr %18, align 8, !tbaa !8
  %246 = load i32, ptr %25, align 4, !tbaa !14
  %247 = zext i32 %246 to i64
  %248 = getelementptr inbounds nuw i32, ptr %245, i64 %247
  %249 = load i32, ptr %248, align 4, !tbaa !14
  %250 = load i32, ptr %17, align 4, !tbaa !14
  %251 = icmp ugt i32 %249, %250
  br i1 %251, label %252, label %258

252:                                              ; preds = %221
  %253 = load ptr, ptr %18, align 8, !tbaa !8
  %254 = load i32, ptr %25, align 4, !tbaa !14
  %255 = zext i32 %254 to i64
  %256 = getelementptr inbounds nuw i32, ptr %253, i64 %255
  %257 = load i32, ptr %256, align 4, !tbaa !14
  store i32 %257, ptr %17, align 4, !tbaa !14
  br label %258

258:                                              ; preds = %252, %221
  br label %259

259:                                              ; preds = %258
  %260 = load i32, ptr %25, align 4, !tbaa !14
  %261 = add i32 %260, 1
  store i32 %261, ptr %25, align 4, !tbaa !14
  br label %218, !llvm.loop !23

262:                                              ; preds = %218
  call void @llvm.lifetime.end.p0(i64 4, ptr %25) #5
  call void @llvm.lifetime.start.p0(i64 4, ptr %26) #5
  store i32 255, ptr %26, align 4, !tbaa !14
  br label %263

263:                                              ; preds = %271, %262
  %264 = load ptr, ptr %18, align 8, !tbaa !8
  %265 = load i32, ptr %26, align 4, !tbaa !14
  %266 = zext i32 %265 to i64
  %267 = getelementptr inbounds nuw i32, ptr %264, i64 %266
  %268 = load i32, ptr %267, align 4, !tbaa !14
  %269 = icmp ne i32 %268, 0
  %270 = xor i1 %269, true
  br i1 %270, label %271, label %274

271:                                              ; preds = %263
  %272 = load i32, ptr %26, align 4, !tbaa !14
  %273 = add i32 %272, -1
  store i32 %273, ptr %26, align 4, !tbaa !14
  br label %263, !llvm.loop !24

274:                                              ; preds = %263
  %275 = load i32, ptr %12, align 4, !tbaa !14
  %276 = icmp ne i32 %275, 0
  br i1 %276, label %277, label %283

277:                                              ; preds = %274
  %278 = load i32, ptr %26, align 4, !tbaa !14
  %279 = load ptr, ptr %9, align 8, !tbaa !8
  %280 = load i32, ptr %279, align 4, !tbaa !14
  %281 = icmp ugt i32 %278, %280
  br i1 %281, label %282, label %283

282:                                              ; preds = %277
  store i64 -48, ptr %7, align 8
  store i32 1, ptr %22, align 4
  br label %289

283:                                              ; preds = %277, %274
  %284 = load i32, ptr %26, align 4, !tbaa !14
  %285 = load ptr, ptr %9, align 8, !tbaa !8
  store i32 %284, ptr %285, align 4, !tbaa !14
  %286 = load ptr, ptr %8, align 8, !tbaa !8
  %287 = load ptr, ptr %18, align 8, !tbaa !8
  %288 = load i64, ptr %16, align 8, !tbaa !4
  call void @llvm.memmove.p0.p0.i64(ptr align 4 %286, ptr align 4 %287, i64 %288, i1 false)
  store i32 0, ptr %22, align 4
  br label %289

289:                                              ; preds = %283, %282
  call void @llvm.lifetime.end.p0(i64 4, ptr %26) #5
  %290 = load i32, ptr %22, align 4
  switch i32 %290, label %294 [
    i32 0, label %291
  ]

291:                                              ; preds = %289
  %292 = load i32, ptr %17, align 4, !tbaa !14
  %293 = zext i32 %292 to i64
  store i64 %293, ptr %7, align 8
  store i32 1, ptr %22, align 4
  br label %294

294:                                              ; preds = %291, %289, %45
  call void @llvm.lifetime.end.p0(i64 8, ptr %21) #5
  call void @llvm.lifetime.end.p0(i64 8, ptr %20) #5
  call void @llvm.lifetime.end.p0(i64 8, ptr %19) #5
  call void @llvm.lifetime.end.p0(i64 8, ptr %18) #5
  call void @llvm.lifetime.end.p0(i64 4, ptr %17) #5
  call void @llvm.lifetime.end.p0(i64 8, ptr %16) #5
  call void @llvm.lifetime.end.p0(i64 8, ptr %15) #5
  call void @llvm.lifetime.end.p0(i64 8, ptr %14) #5
  %295 = load i64, ptr %7, align 8
  ret i64 %295
}